; Function Attrs: inlinehint nounwind uwtable
define internal fastcc noundef i64 @st_add(i64 noundef %0, i64 noundef %1) unnamed_addr #6 {
  %3 = xor i64 %0, -1
  %4 = icmp ugt i64 %1, %3
  br i1 %4, label %5, label %6

5:                                                ; preds = %2
  tail call void (ptr, ...) @die(ptr noundef nonnull @.str.78, i64 noundef %0, i64 noundef %1) #25
  unreachable

6:                                                ; preds = %2
  %7 = add i64 %1, %0
  ret i64 %7
}